target datalayout = "e-m:e-p270:32:32-p271:32:32-p272:64:64-i64:64-i128:128-f80:128-n8:16:32:64-S128"
target triple = "x86_64-pc-linux-gnu"

%struct.ASNItem = type { i8, i8, i8, i8 }
%struct.ASNGetData = type { i32, i32, %union.anon.0, i8, i8 }
%union.anon.0 = type { %struct.anon.3 }
%struct.anon.3 = type { ptr, i32, i32, i32 }

@objectIdASN = internal constant [1 x %struct.ASNItem] [%struct.ASNItem { i8 0, i8 6, i8 0, i8 0 }], align 1

; Function Attrs: nounwind uwtable
define i32 @GetObjectId(ptr noundef %0, ptr noundef %1, ptr noundef %2, i32 noundef %3, i32 noundef %4) #0 {
  %6 = alloca ptr, align 8
  %7 = alloca ptr, align 8
  %8 = alloca ptr, align 8
  %9 = alloca i32, align 4
  %10 = alloca i32, align 4
  %11 = alloca [1 x %struct.ASNGetData], align 16
  %12 = alloca i32, align 4
  store ptr %0, ptr %6, align 8, !tbaa !7
  store ptr %1, ptr %7, align 8, !tbaa !18
  store ptr %2, ptr %8, align 8, !tbaa !18
  store i32 %3, ptr %9, align 4, !tbaa !3
  store i32 %4, ptr %10, align 4, !tbaa !3
  call void @llvm.lifetime.start.p0(i64 40, ptr %11) #9
  call void @llvm.lifetime.start.p0(i64 4, ptr %12) #9
  br label %13

13:                                               ; preds = %5
  br label %14

14:                                               ; preds = %13
  br label %15

15:                                               ; preds = %14
  %16 = getelementptr inbounds [1 x %struct.ASNGetData], ptr %11, i64 0, i64 0
  call void @llvm.memset.p0.i64(ptr align 16 %16, i8 0, i64 40, i1 false)
  %17 = load i32, ptr %9, align 4, !tbaa !3
  %18 = getelementptr inbounds [1 x %struct.ASNGetData], ptr %11, i64 0, i64 0
  %19 = getelementptr inbounds nuw %struct.ASNGetData, ptr %18, i32 0, i32 2
  %20 = getelementptr inbounds nuw %struct.anon.3, ptr %19, i32 0, i32 2
  store i32 %17, ptr %20, align 4, !tbaa !10
  %21 = getelementptr inbounds [1 x %struct.ASNGetData], ptr %11, i64 0, i64 0
  %22 = load ptr, ptr %6, align 8, !tbaa !7
  %23 = load ptr, ptr %7, align 8, !tbaa !18
  %24 = load i32, ptr %10, align 4, !tbaa !3
  %25 = call i32 @GetASN_Items(ptr noundef @objectIdASN, ptr noundef %21, i32 noundef 1, i32 noundef 0, ptr noundef %22, ptr noundef %23, i32 noundef %24)
  store i32 %25, ptr %12, align 4, !tbaa !3
  %26 = load i32, ptr %12, align 4, !tbaa !3
  %27 = icmp eq i32 %26, 0
  br i1 %27, label %28, label %34

28:                                               ; preds = %15
  %29 = getelementptr inbounds [1 x %struct.ASNGetData], ptr %11, i64 0, i64 0
  %30 = getelementptr inbounds nuw %struct.ASNGetData, ptr %29, i32 0, i32 2
  %31 = getelementptr inbounds nuw %struct.anon.3, ptr %30, i32 0, i32 3
  %32 = load i32, ptr %31, align 8, !tbaa !10
  %33 = load ptr, ptr %8, align 8, !tbaa !18
  store i32 %32, ptr %33, align 4, !tbaa !3
  br label %34

34:                                               ; preds = %28, %15
  %35 = load i32, ptr %12, align 4, !tbaa !3
  call void @llvm.lifetime.end.p0(i64 4, ptr %12) #9
  call void @llvm.lifetime.end.p0(i64 40, ptr %11) #9
  ret i32 %35
}