; Function Attrs: nounwind uwtable
define range(i32 -192, 1) i32 @GetObjectId(ptr noundef %0, ptr noundef captures(none) %1, ptr noundef writeonly captures(none) %2, i32 noundef %3, i32 noundef %4) local_unnamed_addr #2 {
  %6 = alloca [1 x %struct.ASNGetData], align 16
  call void @llvm.lifetime.start.p0(i64 40, ptr nonnull %6) #22
  call void @llvm.memset.p0.i64(ptr noundef nonnull align 16 dereferenceable(40) %6, i8 0, i64 40, i1 false)
  %7 = getelementptr inbounds nuw i8, ptr %6, i64 20
  store i32 %3, ptr %7, align 4, !tbaa !3
  %8 = call i32 @GetASN_Items(ptr noundef nonnull @objectIdASN, ptr noundef nonnull %6, i32 noundef 1, i32 noundef 0, ptr noundef %0, ptr noundef %1, i32 noundef %4)
  %9 = icmp eq i32 %8, 0
  br i1 %9, label %10, label %13

10:                                               ; preds = %5
  %11 = getelementptr inbounds nuw i8, ptr %6, i64 24
  %12 = load i32, ptr %11, align 8, !tbaa !3
  store i32 %12, ptr %2, align 4, !tbaa !22
  br label %13

13:                                               ; preds = %10, %5
  call void @llvm.lifetime.end.p0(i64 40, ptr nonnull %6) #22
  ret i32 %8
}